; ModuleID = '20/695.c'
source_filename = "20/695.c"
target datalayout = "e-m:e-p270:32:32-p271:32:32-p272:64:64-i64:64-f80:128-n8:16:32:64-S128"
target triple = "x86_64-pc-linux-gnu"

@.str = private unnamed_addr constant [5 x i8] c"%s%s\00", align 1
@.str.1 = private unnamed_addr constant [4 x i8] c"%s\0A\00", align 1

; Function Attrs: noinline nounwind uwtable
define dso_local i32 @main() #0 {
  %1 = alloca i32, align 4
  %2 = alloca [22 x i8], align 16
  %3 = alloca [4 x i8], align 1
  %4 = alloca [11 x i8], align 1
  %5 = alloca [11 x i8], align 1
  %6 = alloca i32, align 4
  %7 = alloca i32, align 4
  %8 = alloca i32, align 4
  %9 = alloca i32, align 4
  %10 = alloca i32, align 4
  store i32 0, i32* %1, align 4
  %11 = getelementptr inbounds [22 x i8], [22 x i8]* %2, i64 0, i64 0
  %12 = getelementptr inbounds [4 x i8], [4 x i8]* %3, i64 0, i64 0
  %13 = call i32 (i8*, ...) @__isoc99_scanf(i8* getelementptr inbounds ([5 x i8], [5 x i8]* @.str, i64 0, i64 0), i8* %11, i8* %12)
  br label %14

14:                                               ; preds = %114, %0
  %15 = getelementptr inbounds [22 x i8], [22 x i8]* %2, i64 0, i64 0
  %16 = call i64 @strlen(i8* %15) #4
  %17 = trunc i64 %16 to i32
  store i32 %17, i32* %6, align 4
  %18 = getelementptr inbounds [4 x i8], [4 x i8]* %3, i64 0, i64 0
  %19 = call i64 @strlen(i8* %18) #4
  %20 = trunc i64 %19 to i32
  store i32 %20, i32* %7, align 4
  store i32 0, i32* %8, align 4
  br label %21

21:                                               ; preds = %110, %14
  %22 = load i32, i32* %8, align 4
  %23 = load i32, i32* %6, align 4
  %24 = icmp slt i32 %22, %23
  br i1 %24, label %25, label %113

25:                                               ; preds = %21
  store i32 0, i32* %10, align 4
  store i32 0, i32* %9, align 4
  br label %26

26:                                               ; preds = %46, %25
  %27 = load i32, i32* %9, align 4
  %28 = load i32, i32* %6, align 4
  %29 = icmp slt i32 %27, %28
  br i1 %29, label %30, label %49

30:                                               ; preds = %26
  %31 = load i32, i32* %9, align 4
  %32 = sext i32 %31 to i64
  %33 = getelementptr inbounds [22 x i8], [22 x i8]* %2, i64 0, i64 %32
  %34 = load i8, i8* %33, align 1
  %35 = sext i8 %34 to i32
  %36 = load i32, i32* %8, align 4
  %37 = sext i32 %36 to i64
  %38 = getelementptr inbounds [22 x i8], [22 x i8]* %2, i64 0, i64 %37
  %39 = load i8, i8* %38, align 1
  %40 = sext i8 %39 to i32
  %41 = icmp sle i32 %35, %40
  br i1 %41, label %42, label %45

42:                                               ; preds = %30
  %43 = load i32, i32* %10, align 4
  %44 = add nsw i32 %43, 1
  store i32 %44, i32* %10, align 4
  br label %45

45:                                               ; preds = %42, %30
  br label %46

46:                                               ; preds = %45
  %47 = load i32, i32* %9, align 4
  %48 = add nsw i32 %47, 1
  store i32 %48, i32* %9, align 4
  br label %26

49:                                               ; preds = %26
  %50 = load i32, i32* %10, align 4
  %51 = load i32, i32* %6, align 4
  %52 = icmp eq i32 %50, %51
  br i1 %52, label %53, label %109

53:                                               ; preds = %49
  store i32 0, i32* %9, align 4
  br label %54

54:                                               ; preds = %66, %53
  %55 = load i32, i32* %9, align 4
  %56 = load i32, i32* %8, align 4
  %57 = icmp sle i32 %55, %56
  br i1 %57, label %58, label %69

58:                                               ; preds = %54
  %59 = load i32, i32* %9, align 4
  %60 = sext i32 %59 to i64
  %61 = getelementptr inbounds [22 x i8], [22 x i8]* %2, i64 0, i64 %60
  %62 = load i8, i8* %61, align 1
  %63 = load i32, i32* %9, align 4
  %64 = sext i32 %63 to i64
  %65 = getelementptr inbounds [11 x i8], [11 x i8]* %4, i64 0, i64 %64
  store i8 %62, i8* %65, align 1
  br label %66

66:                                               ; preds = %58
  %67 = load i32, i32* %9, align 4
  %68 = add nsw i32 %67, 1
  store i32 %68, i32* %9, align 4
  br label %54

69:                                               ; preds = %54
  %70 = load i32, i32* %8, align 4
  %71 = add nsw i32 %70, 1
  %72 = sext i32 %71 to i64
  %73 = getelementptr inbounds [11 x i8], [11 x i8]* %4, i64 0, i64 %72
  store i8 0, i8* %73, align 1
  %74 = load i32, i32* %8, align 4
  %75 = add nsw i32 %74, 1
  store i32 %75, i32* %9, align 4
  br label %76

76:                                               ; preds = %91, %69
  %77 = load i32, i32* %9, align 4
  %78 = load i32, i32* %6, align 4
  %79 = icmp slt i32 %77, %78
  br i1 %79, label %80, label %94

80:                                               ; preds = %76
  %81 = load i32, i32* %9, align 4
  %82 = sext i32 %81 to i64
  %83 = getelementptr inbounds [22 x i8], [22 x i8]* %2, i64 0, i64 %82
  %84 = load i8, i8* %83, align 1
  %85 = load i32, i32* %9, align 4
  %86 = load i32, i32* %8, align 4
  %87 = sub nsw i32 %85, %86
  %88 = sub nsw i32 %87, 1
  %89 = sext i32 %88 to i64
  %90 = getelementptr inbounds [11 x i8], [11 x i8]* %5, i64 0, i64 %89
  store i8 %84, i8* %90, align 1
  br label %91

91:                                               ; preds = %80
  %92 = load i32, i32* %9, align 4
  %93 = add nsw i32 %92, 1
  store i32 %93, i32* %9, align 4
  br label %76

94:                                               ; preds = %76
  %95 = load i32, i32* %6, align 4
  %96 = load i32, i32* %8, align 4
  %97 = sub nsw i32 %95, %96
  %98 = sub nsw i32 %97, 1
  %99 = sext i32 %98 to i64
  %100 = getelementptr inbounds [11 x i8], [11 x i8]* %5, i64 0, i64 %99
  store i8 0, i8* %100, align 1
  %101 = getelementptr inbounds [11 x i8], [11 x i8]* %4, i64 0, i64 0
  %102 = getelementptr inbounds [4 x i8], [4 x i8]* %3, i64 0, i64 0
  %103 = call i8* @strcat(i8* %101, i8* %102) #5
  %104 = getelementptr inbounds [11 x i8], [11 x i8]* %4, i64 0, i64 0
  %105 = getelementptr inbounds [11 x i8], [11 x i8]* %5, i64 0, i64 0
  %106 = call i8* @strcat(i8* %104, i8* %105) #5
  %107 = getelementptr inbounds [11 x i8], [11 x i8]* %4, i64 0, i64 0
  %108 = call i32 (i8*, ...) @printf(i8* getelementptr inbounds ([4 x i8], [4 x i8]* @.str.1, i64 0, i64 0), i8* %107)
  br label %113

109:                                              ; preds = %49
  br label %110

110:                                              ; preds = %109
  %111 = load i32, i32* %8, align 4
  %112 = add nsw i32 %111, 1
  store i32 %112, i32* %8, align 4
  br label %21

113:                                              ; preds = %94, %21
  br label %114

114:                                              ; preds = %113
  %115 = getelementptr inbounds [22 x i8], [22 x i8]* %2, i64 0, i64 0
  %116 = getelementptr inbounds [4 x i8], [4 x i8]* %3, i64 0, i64 0
  %117 = call i32 (i8*, ...) @__isoc99_scanf(i8* getelementptr inbounds ([5 x i8], [5 x i8]* @.str, i64 0, i64 0), i8* %115, i8* %116)
  %118 = icmp ne i32 %117, -1
  br i1 %118, label %14, label %119

119:                                              ; preds = %114
  %120 = load i32, i32* %1, align 4
  ret i32 %120
}

declare dso_local i32 @__isoc99_scanf(i8*, ...) #1

; Function Attrs: nounwind readonly
declare dso_local i64 @strlen(i8*) #2

; Function Attrs: nounwind
declare dso_local i8* @strcat(i8*, i8*) #3

declare dso_local i32 @printf(i8*, ...) #1


!llvm.module.flags = !{!0}
!llvm.ident = !{!1}

!0 = !{i32 1, !"wchar_size", i32 4}
!1 = !{!"clang version 10.0.0-4ubuntu1 "}
